; Function Attrs: mustprogress nounwind uwtable
define dso_local void @_ZN4llvm5Value19dropDroppableUsesInERNS_4UserE(ptr noundef nonnull readnone align 8 dereferenceable(24) %0, ptr noundef nonnull align 8 dereferenceable(24) %1) local_unnamed_addr #0 align 2 {
  %3 = getelementptr inbounds nuw i8, ptr %1, i64 4
  %4 = load i32, ptr %3, align 4
  %5 = and i32 %4, 1073741824
  %.not.i.i.i.i = icmp eq i32 %5, 0
  br i1 %.not.i.i.i.i, label %9, label %6

6:                                                ; preds = %2
  %7 = getelementptr inbounds i8, ptr %1, i64 -8
  %8 = load ptr, ptr %7, align 8
  %.pre.i.i = and i32 %4, 134217727
  %.pre1.i.i = zext nneg i32 %.pre.i.i to i64
  br label %_ZN4llvm4User8operandsEv.exit

9:                                                ; preds = %2
  %10 = and i32 %4, 134217727
  %11 = zext nneg i32 %10 to i64
  %12 = sub nsw i64 0, %11
  %13 = getelementptr inbounds %"class.llvm::Use", ptr %1, i64 %12
  br label %_ZN4llvm4User8operandsEv.exit

_ZN4llvm4User8operandsEv.exit:                    ; preds = %6, %9
  %14 = phi ptr [ %8, %6 ], [ %13, %9 ]
  %.pre-phi2.i.i = phi i64 [ %.pre1.i.i, %6 ], [ %11, %9 ]
  %15 = getelementptr inbounds %"class.llvm::Use", ptr %14, i64 %.pre-phi2.i.i
  %.not10 = icmp eq i64 %.pre-phi2.i.i, 0
  br i1 %.not10, label %._crit_edge, label %.lr.ph

.lr.ph:                                           ; preds = %_ZN4llvm4User8operandsEv.exit, %19
  %.011 = phi ptr [ %20, %19 ], [ %14, %_ZN4llvm4User8operandsEv.exit ]
  %16 = load ptr, ptr %.011, align 8
  %17 = icmp eq ptr %16, %0
  br i1 %17, label %18, label %19

18:                                               ; preds = %.lr.ph
  tail call void @_ZN4llvm5Value16dropDroppableUseERNS_3UseE(ptr noundef nonnull align 8 dereferenceable(32) %.011)
  br label %19

19:                                               ; preds = %.lr.ph, %18
  %20 = getelementptr inbounds i8, ptr %.011, i64 32
  %.not = icmp eq ptr %20, %15
  br i1 %.not, label %._crit_edge, label %.lr.ph

._crit_edge:                                      ; preds = %19, %_ZN4llvm4User8operandsEv.exit
  ret void
}